
teste.elf:     file format elf32-avr

Sections:
Idx Name          Size      VMA       LMA       File off  Algn
  0 .data         00000018  00800100  0000062c  000006c0  2**0
                  CONTENTS, ALLOC, LOAD, DATA
  1 .text         0000062c  00000000  00000000  00000094  2**1
                  CONTENTS, ALLOC, LOAD, READONLY, CODE
  2 .bss          0000001b  00800118  00800118  000006d8  2**0
                  ALLOC

Disassembly of section .text:

00000000 <__vectors>:
   0:	0c 94 34 00 	jmp	0x68	; 0x68 <__ctors_end>
   4:	0c 94 51 00 	jmp	0xa2	; 0xa2 <__bad_interrupt>
   8:	0c 94 51 00 	jmp	0xa2	; 0xa2 <__bad_interrupt>
   c:	0c 94 51 00 	jmp	0xa2	; 0xa2 <__bad_interrupt>
  10:	0c 94 51 00 	jmp	0xa2	; 0xa2 <__bad_interrupt>
  14:	0c 94 51 00 	jmp	0xa2	; 0xa2 <__bad_interrupt>
  18:	0c 94 51 00 	jmp	0xa2	; 0xa2 <__bad_interrupt>
  1c:	0c 94 51 00 	jmp	0xa2	; 0xa2 <__bad_interrupt>
  20:	0c 94 51 00 	jmp	0xa2	; 0xa2 <__bad_interrupt>
  24:	0c 94 51 00 	jmp	0xa2	; 0xa2 <__bad_interrupt>
  28:	0c 94 51 00 	jmp	0xa2	; 0xa2 <__bad_interrupt>
  2c:	0c 94 51 00 	jmp	0xa2	; 0xa2 <__bad_interrupt>
  30:	0c 94 51 00 	jmp	0xa2	; 0xa2 <__bad_interrupt>
  34:	0c 94 51 00 	jmp	0xa2	; 0xa2 <__bad_interrupt>
  38:	0c 94 51 00 	jmp	0xa2	; 0xa2 <__bad_interrupt>
  3c:	0c 94 51 00 	jmp	0xa2	; 0xa2 <__bad_interrupt>
  40:	0c 94 51 00 	jmp	0xa2	; 0xa2 <__bad_interrupt>
  44:	0c 94 51 00 	jmp	0xa2	; 0xa2 <__bad_interrupt>
  48:	0c 94 8d 01 	jmp	0x31a	; 0x31a <__vector_18>
  4c:	0c 94 51 00 	jmp	0xa2	; 0xa2 <__bad_interrupt>
  50:	0c 94 51 00 	jmp	0xa2	; 0xa2 <__bad_interrupt>
  54:	0c 94 51 00 	jmp	0xa2	; 0xa2 <__bad_interrupt>
  58:	0c 94 51 00 	jmp	0xa2	; 0xa2 <__bad_interrupt>
  5c:	0c 94 51 00 	jmp	0xa2	; 0xa2 <__bad_interrupt>
  60:	0c 94 ea 00 	jmp	0x1d4	; 0x1d4 <__vector_24>
  64:	0c 94 51 00 	jmp	0xa2	; 0xa2 <__bad_interrupt>

00000068 <__ctors_end>:
  68:	11 24       	eor	r1, r1
  6a:	1f be       	out	0x3f, r1	; 63
  6c:	cf ef       	ldi	r28, 0xFF	; 255
  6e:	d8 e0       	ldi	r29, 0x08	; 8
  70:	de bf       	out	0x3e, r29	; 62
  72:	cd bf       	out	0x3d, r28	; 61

00000074 <__do_copy_data>:
  74:	11 e0       	ldi	r17, 0x01	; 1
  76:	a0 e0       	ldi	r26, 0x00	; 0
  78:	b1 e0       	ldi	r27, 0x01	; 1
  7a:	ec e2       	ldi	r30, 0x2C	; 44
  7c:	f6 e0       	ldi	r31, 0x06	; 6
  7e:	02 c0       	rjmp	.+4      	; 0x84 <.do_copy_data_start>

00000080 <.do_copy_data_loop>:
  80:	05 90       	lpm	r0, Z+
  82:	0d 92       	st	X+, r0

00000084 <.do_copy_data_start>:
  84:	a8 31       	cpi	r26, 0x18	; 24
  86:	b1 07       	cpc	r27, r17
  88:	d9 f7       	brne	.-10     	; 0x80 <.do_copy_data_loop>

0000008a <__do_clear_bss>:
  8a:	11 e0       	ldi	r17, 0x01	; 1
  8c:	a8 e1       	ldi	r26, 0x18	; 24
  8e:	b1 e0       	ldi	r27, 0x01	; 1
  90:	01 c0       	rjmp	.+2      	; 0x94 <.do_clear_bss_start>

00000092 <.do_clear_bss_loop>:
  92:	1d 92       	st	X+, r1

00000094 <.do_clear_bss_start>:
  94:	a3 33       	cpi	r26, 0x33	; 51
  96:	b1 07       	cpc	r27, r17
  98:	e1 f7       	brne	.-8      	; 0x92 <.do_clear_bss_loop>
  9a:	0e 94 be 02 	call	0x57c	; 0x57c <main>
  9e:	0c 94 14 03 	jmp	0x628	; 0x628 <_exit>

000000a2 <__bad_interrupt>:
  a2:	0c 94 00 00 	jmp	0	; 0x0 <__vectors>

000000a6 <init_servo>:
  a6:	22 e0       	ldi	r18, 0x02	; 2
  a8:	24 b9       	out	0x04, r18	; 4
  aa:	8c ef       	ldi	r24, 0xFC	; 252
  ac:	85 b9       	out	0x05, r24	; 5
  ae:	8f e3       	ldi	r24, 0x3F	; 63
  b0:	9c e9       	ldi	r25, 0x9C	; 156
  b2:	90 93 87 00 	sts	0x0087, r25
  b6:	80 93 86 00 	sts	0x0086, r24
  ba:	e0 e8       	ldi	r30, 0x80	; 128
  bc:	f0 e0       	ldi	r31, 0x00	; 0
  be:	20 83       	st	Z, r18
  c0:	8a e1       	ldi	r24, 0x1A	; 26
  c2:	80 93 81 00 	sts	0x0081, r24
  c6:	80 81       	ld	r24, Z
  c8:	80 68       	ori	r24, 0x80	; 128
  ca:	80 83       	st	Z, r24
  cc:	80 81       	ld	r24, Z
  ce:	80 62       	ori	r24, 0x20	; 32
  d0:	80 83       	st	Z, r24
  d2:	08 95       	ret

000000d4 <ativa_motor>:
  d4:	94 e6       	ldi	r25, 0x64	; 100
  d6:	89 9f       	mul	r24, r25
  d8:	c0 01       	movw	r24, r0
  da:	11 24       	eor	r1, r1
  dc:	69 e0       	ldi	r22, 0x09	; 9
  de:	70 e0       	ldi	r23, 0x00	; 0
  e0:	0e 94 ed 02 	call	0x5da	; 0x5da <__divmodhi4>
  e4:	60 53       	subi	r22, 0x30	; 48
  e6:	78 4f       	sbci	r23, 0xF8	; 248
  e8:	70 93 89 00 	sts	0x0089, r23
  ec:	60 93 88 00 	sts	0x0088, r22
  f0:	08 95       	ret

000000f2 <SPI_MasterInit>:
  f2:	8c e2       	ldi	r24, 0x2C	; 44
  f4:	84 b9       	out	0x04, r24	; 4
  f6:	81 e7       	ldi	r24, 0x71	; 113
  f8:	8c bd       	out	0x2c, r24	; 44
  fa:	08 95       	ret

000000fc <SPI_Transmit>:
  fc:	8e bd       	out	0x2e, r24	; 46
  fe:	0d b4       	in	r0, 0x2d	; 45
 100:	07 fe       	sbrs	r0, 7
 102:	fd cf       	rjmp	.-6      	; 0xfe <SPI_Transmit+0x2>
 104:	8e b5       	in	r24, 0x2e	; 46
 106:	08 95       	ret

00000108 <SPI_SlaveReceive>:
 108:	8e bd       	out	0x2e, r24	; 46
 10a:	0d b4       	in	r0, 0x2d	; 45
 10c:	07 fe       	sbrs	r0, 7
 10e:	fd cf       	rjmp	.-6      	; 0x10a <SPI_SlaveReceive+0x2>
 110:	8e b5       	in	r24, 0x2e	; 46
 112:	08 95       	ret

00000114 <TWI_Master_Initialise>:
 114:	84 e8       	ldi	r24, 0x84	; 132
 116:	80 93 b8 00 	sts	0x00B8, r24
 11a:	8f ef       	ldi	r24, 0xFF	; 255
 11c:	80 93 bb 00 	sts	0x00BB, r24
 120:	84 e0       	ldi	r24, 0x04	; 4
 122:	80 93 bc 00 	sts	0x00BC, r24
 126:	08 95       	ret

00000128 <TWI_Transceiver_Busy>:
 128:	80 91 bc 00 	lds	r24, 0x00BC
 12c:	81 70       	andi	r24, 0x01	; 1
 12e:	08 95       	ret

00000130 <TWI_Get_State_Info>:
 130:	80 91 bc 00 	lds	r24, 0x00BC
 134:	80 fd       	sbrc	r24, 0
 136:	fc cf       	rjmp	.-8      	; 0x130 <TWI_Get_State_Info>
 138:	80 91 00 01 	lds	r24, 0x0100
 13c:	08 95       	ret

0000013e <TWI_Start_Transceiver_With_Data>:
 13e:	fc 01       	movw	r30, r24
 140:	80 91 bc 00 	lds	r24, 0x00BC
 144:	80 fd       	sbrc	r24, 0
 146:	fc cf       	rjmp	.-8      	; 0x140 <TWI_Start_Transceiver_With_Data+0x2>
 148:	60 93 1e 01 	sts	0x011E, r22
 14c:	80 81       	ld	r24, Z
 14e:	80 93 1a 01 	sts	0x011A, r24
 152:	80 fd       	sbrc	r24, 0
 154:	0d c0       	rjmp	.+26     	; 0x170 <TWI_Start_Transceiver_With_Data+0x32>
 156:	4e 2f       	mov	r20, r30
 158:	ab e1       	ldi	r26, 0x1B	; 27
 15a:	b1 e0       	ldi	r27, 0x01	; 1
 15c:	cf 01       	movw	r24, r30
 15e:	fc 01       	movw	r30, r24
 160:	02 c0       	rjmp	.+4      	; 0x166 <TWI_Start_Transceiver_With_Data+0x28>
 162:	80 81       	ld	r24, Z
 164:	8d 93       	st	X+, r24
 166:	31 96       	adiw	r30, 0x01	; 1
 168:	8e 2f       	mov	r24, r30
 16a:	84 1b       	sub	r24, r20
 16c:	86 17       	cp	r24, r22
 16e:	c8 f3       	brcs	.-14     	; 0x162 <TWI_Start_Transceiver_With_Data+0x24>
 170:	10 92 18 01 	sts	0x0118, r1
 174:	88 ef       	ldi	r24, 0xF8	; 248
 176:	80 93 00 01 	sts	0x0100, r24
 17a:	85 ea       	ldi	r24, 0xA5	; 165
 17c:	80 93 bc 00 	sts	0x00BC, r24
 180:	08 95       	ret

00000182 <TWI_Start_Transceiver>:
 182:	80 91 bc 00 	lds	r24, 0x00BC
 186:	80 fd       	sbrc	r24, 0
 188:	fc cf       	rjmp	.-8      	; 0x182 <TWI_Start_Transceiver>
 18a:	10 92 18 01 	sts	0x0118, r1
 18e:	88 ef       	ldi	r24, 0xF8	; 248
 190:	80 93 00 01 	sts	0x0100, r24
 194:	85 ea       	ldi	r24, 0xA5	; 165
 196:	80 93 bc 00 	sts	0x00BC, r24
 19a:	08 95       	ret

0000019c <TWI_Get_Data_From_Transceiver>:
 19c:	ac 01       	movw	r20, r24
 19e:	80 91 bc 00 	lds	r24, 0x00BC
 1a2:	80 fd       	sbrc	r24, 0
 1a4:	fc cf       	rjmp	.-8      	; 0x19e <TWI_Get_Data_From_Transceiver+0x2>
 1a6:	80 91 18 01 	lds	r24, 0x0118
 1aa:	80 ff       	sbrs	r24, 0
 1ac:	0f c0       	rjmp	.+30     	; 0x1cc <TWI_Get_Data_From_Transceiver+0x30>
 1ae:	20 e0       	ldi	r18, 0x00	; 0
 1b0:	30 e0       	ldi	r19, 0x00	; 0
 1b2:	0a c0       	rjmp	.+20     	; 0x1c8 <TWI_Get_Data_From_Transceiver+0x2c>
 1b4:	fa 01       	movw	r30, r20
 1b6:	e2 0f       	add	r30, r18
 1b8:	f3 1f       	adc	r31, r19
 1ba:	d9 01       	movw	r26, r18
 1bc:	a6 5e       	subi	r26, 0xE6	; 230
 1be:	be 4f       	sbci	r27, 0xFE	; 254
 1c0:	8c 91       	ld	r24, X
 1c2:	80 83       	st	Z, r24
 1c4:	2f 5f       	subi	r18, 0xFF	; 255
 1c6:	3f 4f       	sbci	r19, 0xFF	; 255
 1c8:	26 17       	cp	r18, r22
 1ca:	a0 f3       	brcs	.-24     	; 0x1b4 <TWI_Get_Data_From_Transceiver+0x18>
 1cc:	80 91 18 01 	lds	r24, 0x0118
 1d0:	81 70       	andi	r24, 0x01	; 1
 1d2:	08 95       	ret

000001d4 <__vector_24>:
 1d4:	1f 92       	push	r1
 1d6:	0f 92       	push	r0
 1d8:	0f b6       	in	r0, 0x3f	; 63
 1da:	0f 92       	push	r0
 1dc:	11 24       	eor	r1, r1
 1de:	2f 93       	push	r18
 1e0:	3f 93       	push	r19
 1e2:	8f 93       	push	r24
 1e4:	9f 93       	push	r25
 1e6:	ef 93       	push	r30
 1e8:	ff 93       	push	r31
 1ea:	80 91 b9 00 	lds	r24, 0x00B9
 1ee:	88 32       	cpi	r24, 0x28	; 40
 1f0:	d1 f0       	breq	.+52     	; 0x226 <__vector_24+0x52>
 1f2:	89 32       	cpi	r24, 0x29	; 41
 1f4:	40 f4       	brcc	.+16     	; 0x206 <__vector_24+0x32>
 1f6:	80 31       	cpi	r24, 0x10	; 16
 1f8:	a1 f0       	breq	.+40     	; 0x222 <__vector_24+0x4e>
 1fa:	88 31       	cpi	r24, 0x18	; 24
 1fc:	a1 f0       	breq	.+40     	; 0x226 <__vector_24+0x52>
 1fe:	88 30       	cpi	r24, 0x08	; 8
 200:	09 f0       	breq	.+2      	; 0x204 <__vector_24+0x30>
 202:	4d c0       	rjmp	.+154    	; 0x29e <__vector_24+0xca>
 204:	0e c0       	rjmp	.+28     	; 0x222 <__vector_24+0x4e>
 206:	80 34       	cpi	r24, 0x40	; 64
 208:	59 f1       	breq	.+86     	; 0x260 <__vector_24+0x8c>
 20a:	81 34       	cpi	r24, 0x41	; 65
 20c:	20 f4       	brcc	.+8      	; 0x216 <__vector_24+0x42>
 20e:	88 33       	cpi	r24, 0x38	; 56
 210:	09 f0       	breq	.+2      	; 0x214 <__vector_24+0x40>
 212:	45 c0       	rjmp	.+138    	; 0x29e <__vector_24+0xca>
 214:	42 c0       	rjmp	.+132    	; 0x29a <__vector_24+0xc6>
 216:	80 35       	cpi	r24, 0x50	; 80
 218:	b9 f0       	breq	.+46     	; 0x248 <__vector_24+0x74>
 21a:	88 35       	cpi	r24, 0x58	; 88
 21c:	09 f0       	breq	.+2      	; 0x220 <__vector_24+0x4c>
 21e:	3f c0       	rjmp	.+126    	; 0x29e <__vector_24+0xca>
 220:	2d c0       	rjmp	.+90     	; 0x27c <__vector_24+0xa8>
 222:	10 92 19 01 	sts	0x0119, r1
 226:	90 91 19 01 	lds	r25, 0x0119
 22a:	80 91 1e 01 	lds	r24, 0x011E
 22e:	98 17       	cp	r25, r24
 230:	68 f5       	brcc	.+90     	; 0x28c <__vector_24+0xb8>
 232:	e9 2f       	mov	r30, r25
 234:	f0 e0       	ldi	r31, 0x00	; 0
 236:	e6 5e       	subi	r30, 0xE6	; 230
 238:	fe 4f       	sbci	r31, 0xFE	; 254
 23a:	80 81       	ld	r24, Z
 23c:	80 93 bb 00 	sts	0x00BB, r24
 240:	9f 5f       	subi	r25, 0xFF	; 255
 242:	90 93 19 01 	sts	0x0119, r25
 246:	18 c0       	rjmp	.+48     	; 0x278 <__vector_24+0xa4>
 248:	80 91 19 01 	lds	r24, 0x0119
 24c:	90 91 bb 00 	lds	r25, 0x00BB
 250:	e8 2f       	mov	r30, r24
 252:	f0 e0       	ldi	r31, 0x00	; 0
 254:	e6 5e       	subi	r30, 0xE6	; 230
 256:	fe 4f       	sbci	r31, 0xFE	; 254
 258:	90 83       	st	Z, r25
 25a:	8f 5f       	subi	r24, 0xFF	; 255
 25c:	80 93 19 01 	sts	0x0119, r24
 260:	20 91 19 01 	lds	r18, 0x0119
 264:	30 e0       	ldi	r19, 0x00	; 0
 266:	80 91 1e 01 	lds	r24, 0x011E
 26a:	90 e0       	ldi	r25, 0x00	; 0
 26c:	01 97       	sbiw	r24, 0x01	; 1
 26e:	28 17       	cp	r18, r24
 270:	39 07       	cpc	r19, r25
 272:	14 f4       	brge	.+4      	; 0x278 <__vector_24+0xa4>
 274:	85 ec       	ldi	r24, 0xC5	; 197
 276:	18 c0       	rjmp	.+48     	; 0x2a8 <__vector_24+0xd4>
 278:	85 e8       	ldi	r24, 0x85	; 133
 27a:	16 c0       	rjmp	.+44     	; 0x2a8 <__vector_24+0xd4>
 27c:	80 91 bb 00 	lds	r24, 0x00BB
 280:	e0 91 19 01 	lds	r30, 0x0119
 284:	f0 e0       	ldi	r31, 0x00	; 0
 286:	e6 5e       	subi	r30, 0xE6	; 230
 288:	fe 4f       	sbci	r31, 0xFE	; 254
 28a:	80 83       	st	Z, r24
 28c:	80 91 18 01 	lds	r24, 0x0118
 290:	81 60       	ori	r24, 0x01	; 1
 292:	80 93 18 01 	sts	0x0118, r24
 296:	84 e9       	ldi	r24, 0x94	; 148
 298:	07 c0       	rjmp	.+14     	; 0x2a8 <__vector_24+0xd4>
 29a:	85 ea       	ldi	r24, 0xA5	; 165
 29c:	05 c0       	rjmp	.+10     	; 0x2a8 <__vector_24+0xd4>
 29e:	80 91 b9 00 	lds	r24, 0x00B9
 2a2:	80 93 00 01 	sts	0x0100, r24
 2a6:	84 e0       	ldi	r24, 0x04	; 4
 2a8:	80 93 bc 00 	sts	0x00BC, r24
 2ac:	ff 91       	pop	r31
 2ae:	ef 91       	pop	r30
 2b0:	9f 91       	pop	r25
 2b2:	8f 91       	pop	r24
 2b4:	3f 91       	pop	r19
 2b6:	2f 91       	pop	r18
 2b8:	0f 90       	pop	r0
 2ba:	0f be       	out	0x3f, r0	; 63
 2bc:	0f 90       	pop	r0
 2be:	1f 90       	pop	r1
 2c0:	18 95       	reti

000002c2 <get_usart_stream>:
 2c2:	81 e0       	ldi	r24, 0x01	; 1
 2c4:	91 e0       	ldi	r25, 0x01	; 1
 2c6:	08 95       	ret

000002c8 <USART_Init>:
 2c8:	e0 ec       	ldi	r30, 0xC0	; 192
 2ca:	f0 e0       	ldi	r31, 0x00	; 0
 2cc:	95 83       	std	Z+5, r25	; 0x05
 2ce:	84 83       	std	Z+4, r24	; 0x04
 2d0:	10 82       	st	Z, r1
 2d2:	88 e9       	ldi	r24, 0x98	; 152
 2d4:	81 83       	std	Z+1, r24	; 0x01
 2d6:	80 ec       	ldi	r24, 0xC0	; 192
 2d8:	81 83       	std	Z+1, r24	; 0x01
 2da:	86 e0       	ldi	r24, 0x06	; 6
 2dc:	82 83       	std	Z+2, r24	; 0x02
 2de:	88 ed       	ldi	r24, 0xD8	; 216
 2e0:	81 83       	std	Z+1, r24	; 0x01
 2e2:	08 95       	ret

000002e4 <USART_tx>:
 2e4:	98 2f       	mov	r25, r24
 2e6:	80 91 c0 00 	lds	r24, 0x00C0
 2ea:	85 ff       	sbrs	r24, 5
 2ec:	fc cf       	rjmp	.-8      	; 0x2e6 <USART_tx+0x2>
 2ee:	e0 ec       	ldi	r30, 0xC0	; 192
 2f0:	f0 e0       	ldi	r31, 0x00	; 0
 2f2:	96 83       	std	Z+6, r25	; 0x06
 2f4:	08 95       	ret

000002f6 <USART_rx>:
 2f6:	80 91 c0 00 	lds	r24, 0x00C0
 2fa:	87 ff       	sbrs	r24, 7
 2fc:	fc cf       	rjmp	.-8      	; 0x2f6 <USART_rx>
 2fe:	80 91 c6 00 	lds	r24, 0x00C6
 302:	08 95       	ret

00000304 <usart_putchar>:
 304:	98 2f       	mov	r25, r24
 306:	80 91 c0 00 	lds	r24, 0x00C0
 30a:	85 ff       	sbrs	r24, 5
 30c:	fc cf       	rjmp	.-8      	; 0x306 <usart_putchar+0x2>
 30e:	e0 ec       	ldi	r30, 0xC0	; 192
 310:	f0 e0       	ldi	r31, 0x00	; 0
 312:	96 83       	std	Z+6, r25	; 0x06
 314:	80 e0       	ldi	r24, 0x00	; 0
 316:	90 e0       	ldi	r25, 0x00	; 0
 318:	08 95       	ret

0000031a <__vector_18>:
 31a:	1f 92       	push	r1
 31c:	0f 92       	push	r0
 31e:	0f b6       	in	r0, 0x3f	; 63
 320:	0f 92       	push	r0
 322:	11 24       	eor	r1, r1
 324:	0f 90       	pop	r0
 326:	0f be       	out	0x3f, r0	; 63
 328:	0f 90       	pop	r0
 32a:	1f 90       	pop	r1
 32c:	18 95       	reti

0000032e <get_dht_humidityHigh>:
 32e:	80 91 1f 01 	lds	r24, 0x011F
 332:	08 95       	ret

00000334 <get_dht_humidityLow>:
 334:	80 91 20 01 	lds	r24, 0x0120
 338:	08 95       	ret

0000033a <get_dht_tempHigh>:
 33a:	80 91 21 01 	lds	r24, 0x0121
 33e:	08 95       	ret

00000340 <get_dht_tempLow>:
 340:	80 91 22 01 	lds	r24, 0x0122
 344:	08 95       	ret

00000346 <dht_response>:
 346:	0f 93       	push	r16
 348:	1f 93       	push	r17
 34a:	0e 94 43 02 	call	0x486	; 0x486 <reset_1w>
 34e:	88 23       	and	r24, r24
 350:	11 f0       	breq	.+4      	; 0x356 <dht_response+0x10>
 352:	97 e0       	ldi	r25, 0x07	; 7
 354:	1b c0       	rjmp	.+54     	; 0x38c <dht_response+0x46>
 356:	0e 94 65 02 	call	0x4ca	; 0x4ca <read_byte_1w>
 35a:	18 2f       	mov	r17, r24
 35c:	80 93 1f 01 	sts	0x011F, r24
 360:	0e 94 65 02 	call	0x4ca	; 0x4ca <read_byte_1w>
 364:	08 2f       	mov	r16, r24
 366:	80 93 20 01 	sts	0x0120, r24
 36a:	0e 94 65 02 	call	0x4ca	; 0x4ca <read_byte_1w>
 36e:	80 93 21 01 	sts	0x0121, r24
 372:	10 0f       	add	r17, r16
 374:	18 0f       	add	r17, r24
 376:	0e 94 65 02 	call	0x4ca	; 0x4ca <read_byte_1w>
 37a:	08 2f       	mov	r16, r24
 37c:	80 93 22 01 	sts	0x0122, r24
 380:	0e 94 65 02 	call	0x4ca	; 0x4ca <read_byte_1w>
 384:	90 e0       	ldi	r25, 0x00	; 0
 386:	10 0f       	add	r17, r16
 388:	18 13       	cpse	r17, r24
 38a:	91 e0       	ldi	r25, 0x01	; 1
 38c:	89 2f       	mov	r24, r25
 38e:	1f 91       	pop	r17
 390:	0f 91       	pop	r16
 392:	08 95       	ret

00000394 <CRC16_2>:
 394:	cf 92       	push	r12
 396:	df 92       	push	r13
 398:	ef 92       	push	r14
 39a:	ff 92       	push	r15
 39c:	0f 93       	push	r16
 39e:	1f 93       	push	r17
 3a0:	cf 93       	push	r28
 3a2:	df 93       	push	r29
 3a4:	6c 01       	movw	r12, r24
 3a6:	eb 01       	movw	r28, r22
 3a8:	2f ef       	ldi	r18, 0xFF	; 255
 3aa:	3f ef       	ldi	r19, 0xFF	; 255
 3ac:	40 e0       	ldi	r20, 0x00	; 0
 3ae:	50 e0       	ldi	r21, 0x00	; 0
 3b0:	60 e0       	ldi	r22, 0x00	; 0
 3b2:	70 e0       	ldi	r23, 0x00	; 0
 3b4:	b1 e0       	ldi	r27, 0x01	; 1
 3b6:	eb 2e       	mov	r14, r27
 3b8:	b0 ea       	ldi	r27, 0xA0	; 160
 3ba:	fb 2e       	mov	r15, r27
 3bc:	01 2d       	mov	r16, r1
 3be:	11 2d       	mov	r17, r1
 3c0:	1e c0       	rjmp	.+60     	; 0x3fe <CRC16_2+0x6a>
 3c2:	f6 01       	movw	r30, r12
 3c4:	e6 0f       	add	r30, r22
 3c6:	f7 1f       	adc	r31, r23
 3c8:	80 81       	ld	r24, Z
 3ca:	90 e0       	ldi	r25, 0x00	; 0
 3cc:	a0 e0       	ldi	r26, 0x00	; 0
 3ce:	b0 e0       	ldi	r27, 0x00	; 0
 3d0:	28 27       	eor	r18, r24
 3d2:	39 27       	eor	r19, r25
 3d4:	4a 27       	eor	r20, r26
 3d6:	5b 27       	eor	r21, r27
 3d8:	e8 e0       	ldi	r30, 0x08	; 8
 3da:	f0 e0       	ldi	r31, 0x00	; 0
 3dc:	c9 01       	movw	r24, r18
 3de:	81 70       	andi	r24, 0x01	; 1
 3e0:	90 70       	andi	r25, 0x00	; 0
 3e2:	56 95       	lsr	r21
 3e4:	47 95       	ror	r20
 3e6:	37 95       	ror	r19
 3e8:	27 95       	ror	r18
 3ea:	89 2b       	or	r24, r25
 3ec:	21 f0       	breq	.+8      	; 0x3f6 <CRC16_2+0x62>
 3ee:	2e 25       	eor	r18, r14
 3f0:	3f 25       	eor	r19, r15
 3f2:	40 27       	eor	r20, r16
 3f4:	51 27       	eor	r21, r17
 3f6:	31 97       	sbiw	r30, 0x01	; 1
 3f8:	89 f7       	brne	.-30     	; 0x3dc <CRC16_2+0x48>
 3fa:	6f 5f       	subi	r22, 0xFF	; 255
 3fc:	7f 4f       	sbci	r23, 0xFF	; 255
 3fe:	6c 17       	cp	r22, r28
 400:	7d 07       	cpc	r23, r29
 402:	fc f2       	brlt	.-66     	; 0x3c2 <CRC16_2+0x2e>
 404:	c9 01       	movw	r24, r18
 406:	df 91       	pop	r29
 408:	cf 91       	pop	r28
 40a:	1f 91       	pop	r17
 40c:	0f 91       	pop	r16
 40e:	ff 90       	pop	r15
 410:	ef 90       	pop	r14
 412:	df 90       	pop	r13
 414:	cf 90       	pop	r12
 416:	08 95       	ret

00000418 <modbusConfig>:
 418:	81 30       	cpi	r24, 0x01	; 1
 41a:	09 f0       	breq	.+2      	; 0x41e <modbusConfig+0x6>
 41c:	82 e0       	ldi	r24, 0x02	; 2
 41e:	80 93 10 01 	sts	0x0110, r24
 422:	10 92 11 01 	sts	0x0111, r1
 426:	60 93 12 01 	sts	0x0112, r22
 42a:	10 92 13 01 	sts	0x0113, r1
 42e:	40 93 14 01 	sts	0x0114, r20
 432:	8f e0       	ldi	r24, 0x0F	; 15
 434:	91 e0       	ldi	r25, 0x01	; 1
 436:	66 e0       	ldi	r22, 0x06	; 6
 438:	70 e0       	ldi	r23, 0x00	; 0
 43a:	0e 94 ca 01 	call	0x394	; 0x394 <CRC16_2>
 43e:	90 93 15 01 	sts	0x0115, r25
 442:	80 93 16 01 	sts	0x0116, r24
 446:	08 95       	ret

00000448 <modbus_rx>:
 448:	cf 93       	push	r28
 44a:	df 93       	push	r29
 44c:	c3 e2       	ldi	r28, 0x23	; 35
 44e:	d1 e0       	ldi	r29, 0x01	; 1
 450:	0e 94 7b 01 	call	0x2f6	; 0x2f6 <USART_rx>
 454:	89 93       	st	Y+, r24
 456:	81 e0       	ldi	r24, 0x01	; 1
 458:	c1 33       	cpi	r28, 0x31	; 49
 45a:	d8 07       	cpc	r29, r24
 45c:	c9 f7       	brne	.-14     	; 0x450 <modbus_rx+0x8>
 45e:	df 91       	pop	r29
 460:	cf 91       	pop	r28
 462:	08 95       	ret

00000464 <modbus_tx>:
 464:	cf 93       	push	r28
 466:	df 93       	push	r29
 468:	c0 e0       	ldi	r28, 0x00	; 0
 46a:	d0 e0       	ldi	r29, 0x00	; 0
 46c:	fe 01       	movw	r30, r28
 46e:	e1 5f       	subi	r30, 0xF1	; 241
 470:	fe 4f       	sbci	r31, 0xFE	; 254
 472:	80 81       	ld	r24, Z
 474:	0e 94 72 01 	call	0x2e4	; 0x2e4 <USART_tx>
 478:	21 96       	adiw	r28, 0x01	; 1
 47a:	c8 30       	cpi	r28, 0x08	; 8
 47c:	d1 05       	cpc	r29, r1
 47e:	b1 f7       	brne	.-20     	; 0x46c <modbus_tx+0x8>
 480:	df 91       	pop	r29
 482:	cf 91       	pop	r28
 484:	08 95       	ret

00000486 <reset_1w>:
 486:	38 9a       	sbi	0x07, 0	; 7
 488:	40 98       	cbi	0x08, 0	; 8
 48a:	84 eb       	ldi	r24, 0xB4	; 180
 48c:	90 e0       	ldi	r25, 0x00	; 0
 48e:	20 e9       	ldi	r18, 0x90	; 144
 490:	31 e0       	ldi	r19, 0x01	; 1
 492:	f9 01       	movw	r30, r18
 494:	31 97       	sbiw	r30, 0x01	; 1
 496:	f1 f7       	brne	.-4      	; 0x494 <reset_1w+0xe>
 498:	01 97       	sbiw	r24, 0x01	; 1
 49a:	d9 f7       	brne	.-10     	; 0x492 <reset_1w+0xc>
 49c:	38 98       	cbi	0x07, 0	; 7
 49e:	40 9a       	sbi	0x08, 0	; 8
 4a0:	85 ed       	ldi	r24, 0xD5	; 213
 4a2:	8a 95       	dec	r24
 4a4:	f1 f7       	brne	.-4      	; 0x4a2 <reset_1w+0x1c>
 4a6:	30 9b       	sbis	0x06, 0	; 6
 4a8:	02 c0       	rjmp	.+4      	; 0x4ae <reset_1w+0x28>
 4aa:	81 e0       	ldi	r24, 0x01	; 1
 4ac:	08 95       	ret
 4ae:	20 e4       	ldi	r18, 0x40	; 64
 4b0:	31 e0       	ldi	r19, 0x01	; 1
 4b2:	c9 01       	movw	r24, r18
 4b4:	01 97       	sbiw	r24, 0x01	; 1
 4b6:	f1 f7       	brne	.-4      	; 0x4b4 <reset_1w+0x2e>
 4b8:	30 99       	sbic	0x06, 0	; 6
 4ba:	02 c0       	rjmp	.+4      	; 0x4c0 <reset_1w+0x3a>
 4bc:	82 e0       	ldi	r24, 0x02	; 2
 4be:	08 95       	ret
 4c0:	c9 01       	movw	r24, r18
 4c2:	01 97       	sbiw	r24, 0x01	; 1
 4c4:	f1 f7       	brne	.-4      	; 0x4c2 <reset_1w+0x3c>
 4c6:	80 e0       	ldi	r24, 0x00	; 0
 4c8:	08 95       	ret

000004ca <read_byte_1w>:
 4ca:	40 e0       	ldi	r20, 0x00	; 0
 4cc:	27 e0       	ldi	r18, 0x07	; 7
 4ce:	30 e0       	ldi	r19, 0x00	; 0
 4d0:	50 ea       	ldi	r21, 0xA0	; 160
 4d2:	61 e0       	ldi	r22, 0x01	; 1
 4d4:	70 e0       	ldi	r23, 0x00	; 0
 4d6:	30 9b       	sbis	0x06, 0	; 6
 4d8:	fe cf       	rjmp	.-4      	; 0x4d6 <read_byte_1w+0xc>
 4da:	85 2f       	mov	r24, r21
 4dc:	8a 95       	dec	r24
 4de:	f1 f7       	brne	.-4      	; 0x4dc <read_byte_1w+0x12>
 4e0:	30 9b       	sbis	0x06, 0	; 6
 4e2:	08 c0       	rjmp	.+16     	; 0x4f4 <read_byte_1w+0x2a>
 4e4:	cb 01       	movw	r24, r22
 4e6:	02 2e       	mov	r0, r18
 4e8:	02 c0       	rjmp	.+4      	; 0x4ee <read_byte_1w+0x24>
 4ea:	88 0f       	add	r24, r24
 4ec:	99 1f       	adc	r25, r25
 4ee:	0a 94       	dec	r0
 4f0:	e2 f7       	brpl	.-8      	; 0x4ea <read_byte_1w+0x20>
 4f2:	48 2b       	or	r20, r24
 4f4:	30 99       	sbic	0x06, 0	; 6
 4f6:	fe cf       	rjmp	.-4      	; 0x4f4 <read_byte_1w+0x2a>
 4f8:	21 50       	subi	r18, 0x01	; 1
 4fa:	30 40       	sbci	r19, 0x00	; 0
 4fc:	8f ef       	ldi	r24, 0xFF	; 255
 4fe:	2f 3f       	cpi	r18, 0xFF	; 255
 500:	38 07       	cpc	r19, r24
 502:	49 f7       	brne	.-46     	; 0x4d6 <read_byte_1w+0xc>
 504:	84 2f       	mov	r24, r20
 506:	08 95       	ret

00000508 <power_1w>:
 508:	38 9a       	sbi	0x07, 0	; 7
 50a:	40 9a       	sbi	0x08, 0	; 8
 50c:	8c e4       	ldi	r24, 0x4C	; 76
 50e:	9d e1       	ldi	r25, 0x1D	; 29
 510:	20 e9       	ldi	r18, 0x90	; 144
 512:	31 e0       	ldi	r19, 0x01	; 1
 514:	f9 01       	movw	r30, r18
 516:	31 97       	sbiw	r30, 0x01	; 1
 518:	f1 f7       	brne	.-4      	; 0x516 <power_1w+0xe>
 51a:	01 97       	sbiw	r24, 0x01	; 1
 51c:	d9 f7       	brne	.-10     	; 0x514 <power_1w+0xc>
 51e:	38 98       	cbi	0x07, 0	; 7
 520:	40 9a       	sbi	0x08, 0	; 8
 522:	08 95       	ret

00000524 <write_bit_1w>:
 524:	38 9a       	sbi	0x07, 0	; 7
 526:	40 98       	cbi	0x08, 0	; 8
 528:	9a e0       	ldi	r25, 0x0A	; 10
 52a:	9a 95       	dec	r25
 52c:	f1 f7       	brne	.-4      	; 0x52a <write_bit_1w+0x6>
 52e:	81 11       	cpse	r24, r1
 530:	40 9a       	sbi	0x08, 0	; 8
 532:	80 ee       	ldi	r24, 0xE0	; 224
 534:	91 e0       	ldi	r25, 0x01	; 1
 536:	01 97       	sbiw	r24, 0x01	; 1
 538:	f1 f7       	brne	.-4      	; 0x536 <write_bit_1w+0x12>
 53a:	38 98       	cbi	0x07, 0	; 7
 53c:	40 9a       	sbi	0x08, 0	; 8
 53e:	08 95       	ret

00000540 <write_byte_1w>:
 540:	ff 92       	push	r15
 542:	0f 93       	push	r16
 544:	1f 93       	push	r17
 546:	cf 93       	push	r28
 548:	df 93       	push	r29
 54a:	f8 2e       	mov	r15, r24
 54c:	c0 e0       	ldi	r28, 0x00	; 0
 54e:	d0 e0       	ldi	r29, 0x00	; 0
 550:	01 e0       	ldi	r16, 0x01	; 1
 552:	10 e0       	ldi	r17, 0x00	; 0
 554:	c8 01       	movw	r24, r16
 556:	0c 2e       	mov	r0, r28
 558:	02 c0       	rjmp	.+4      	; 0x55e <write_byte_1w+0x1e>
 55a:	88 0f       	add	r24, r24
 55c:	99 1f       	adc	r25, r25
 55e:	0a 94       	dec	r0
 560:	e2 f7       	brpl	.-8      	; 0x55a <write_byte_1w+0x1a>
 562:	8f 21       	and	r24, r15
 564:	0e 94 92 02 	call	0x524	; 0x524 <write_bit_1w>
 568:	21 96       	adiw	r28, 0x01	; 1
 56a:	c8 30       	cpi	r28, 0x08	; 8
 56c:	d1 05       	cpc	r29, r1
 56e:	91 f7       	brne	.-28     	; 0x554 <write_byte_1w+0x14>
 570:	df 91       	pop	r29
 572:	cf 91       	pop	r28
 574:	1f 91       	pop	r17
 576:	0f 91       	pop	r16
 578:	ff 90       	pop	r15
 57a:	08 95       	ret

0000057c <main>:
 57c:	cf 93       	push	r28
 57e:	df 93       	push	r29
 580:	87 e6       	ldi	r24, 0x67	; 103
 582:	90 e0       	ldi	r25, 0x00	; 0
 584:	0e 94 64 01 	call	0x2c8	; 0x2c8 <USART_Init>
 588:	0e 94 53 00 	call	0xa6	; 0xa6 <init_servo>
 58c:	c0 e9       	ldi	r28, 0x90	; 144
 58e:	d1 e0       	ldi	r29, 0x01	; 1
 590:	0e 94 a3 01 	call	0x346	; 0x346 <dht_response>
 594:	88 23       	and	r24, r24
 596:	c9 f0       	breq	.+50     	; 0x5ca <main+0x4e>
 598:	0e 94 9d 01 	call	0x33a	; 0x33a <get_dht_tempHigh>
 59c:	48 2f       	mov	r20, r24
 59e:	81 e0       	ldi	r24, 0x01	; 1
 5a0:	65 e0       	ldi	r22, 0x05	; 5
 5a2:	0e 94 0c 02 	call	0x418	; 0x418 <modbusConfig>
 5a6:	0e 94 32 02 	call	0x464	; 0x464 <modbus_tx>
 5aa:	0e 94 97 01 	call	0x32e	; 0x32e <get_dht_humidityHigh>
 5ae:	48 2f       	mov	r20, r24
 5b0:	81 e0       	ldi	r24, 0x01	; 1
 5b2:	66 e0       	ldi	r22, 0x06	; 6
 5b4:	0e 94 0c 02 	call	0x418	; 0x418 <modbusConfig>
 5b8:	0e 94 32 02 	call	0x464	; 0x464 <modbus_tx>
 5bc:	82 e0       	ldi	r24, 0x02	; 2
 5be:	61 e0       	ldi	r22, 0x01	; 1
 5c0:	41 e0       	ldi	r20, 0x01	; 1
 5c2:	0e 94 0c 02 	call	0x418	; 0x418 <modbusConfig>
 5c6:	0e 94 24 02 	call	0x448	; 0x448 <modbus_rx>
 5ca:	88 e8       	ldi	r24, 0x88	; 136
 5cc:	93 e1       	ldi	r25, 0x13	; 19
 5ce:	fe 01       	movw	r30, r28
 5d0:	31 97       	sbiw	r30, 0x01	; 1
 5d2:	f1 f7       	brne	.-4      	; 0x5d0 <main+0x54>
 5d4:	01 97       	sbiw	r24, 0x01	; 1
 5d6:	e1 f2       	breq	.-72     	; 0x590 <main+0x14>
 5d8:	fa cf       	rjmp	.-12     	; 0x5ce <main+0x52>

000005da <__divmodhi4>:
 5da:	97 fb       	bst	r25, 7
 5dc:	09 2e       	mov	r0, r25
 5de:	07 26       	eor	r0, r23
 5e0:	0a d0       	rcall	.+20     	; 0x5f6 <__divmodhi4_neg1>
 5e2:	77 fd       	sbrc	r23, 7
 5e4:	04 d0       	rcall	.+8      	; 0x5ee <__divmodhi4_neg2>
 5e6:	0c d0       	rcall	.+24     	; 0x600 <__udivmodhi4>
 5e8:	06 d0       	rcall	.+12     	; 0x5f6 <__divmodhi4_neg1>
 5ea:	00 20       	and	r0, r0
 5ec:	1a f4       	brpl	.+6      	; 0x5f4 <__divmodhi4_exit>

000005ee <__divmodhi4_neg2>:
 5ee:	70 95       	com	r23
 5f0:	61 95       	neg	r22
 5f2:	7f 4f       	sbci	r23, 0xFF	; 255

000005f4 <__divmodhi4_exit>:
 5f4:	08 95       	ret

000005f6 <__divmodhi4_neg1>:
 5f6:	f6 f7       	brtc	.-4      	; 0x5f4 <__divmodhi4_exit>
 5f8:	90 95       	com	r25
 5fa:	81 95       	neg	r24
 5fc:	9f 4f       	sbci	r25, 0xFF	; 255
 5fe:	08 95       	ret

00000600 <__udivmodhi4>:
 600:	aa 1b       	sub	r26, r26
 602:	bb 1b       	sub	r27, r27
 604:	51 e1       	ldi	r21, 0x11	; 17
 606:	07 c0       	rjmp	.+14     	; 0x616 <__udivmodhi4_ep>

00000608 <__udivmodhi4_loop>:
 608:	aa 1f       	adc	r26, r26
 60a:	bb 1f       	adc	r27, r27
 60c:	a6 17       	cp	r26, r22
 60e:	b7 07       	cpc	r27, r23
 610:	10 f0       	brcs	.+4      	; 0x616 <__udivmodhi4_ep>
 612:	a6 1b       	sub	r26, r22
 614:	b7 0b       	sbc	r27, r23

00000616 <__udivmodhi4_ep>:
 616:	88 1f       	adc	r24, r24
 618:	99 1f       	adc	r25, r25
 61a:	5a 95       	dec	r21
 61c:	a9 f7       	brne	.-22     	; 0x608 <__udivmodhi4_loop>
 61e:	80 95       	com	r24
 620:	90 95       	com	r25
 622:	bc 01       	movw	r22, r24
 624:	cd 01       	movw	r24, r26
 626:	08 95       	ret

00000628 <_exit>:
 628:	f8 94       	cli

0000062a <__stop_program>:
 62a:	ff cf       	rjmp	.-2      	; 0x62a <__stop_program>
